target datalayout = "e-m:e-p270:32:32-p271:32:32-p272:64:64-i64:64-i128:128-f80:128-n8:16:32:64-S128"
target triple = "x86_64-pc-linux-gnu"

%struct.prov_param_st = type { ptr, ptr, ptr, i32 }

@provider_option_given = internal global i32 0, align 4
@.str.1 = private unnamed_addr constant [35 x i8] c"../openssl/apps/lib/app_provider.c\00", align 1
@.str.2 = private unnamed_addr constant [47 x i8] c"%s: malformed '-provparam' option value: '%s'\0A\00", align 1
@.str.3 = private unnamed_addr constant [48 x i8] c"%s: Error setting provider '%s' parameter '%s'\0A\00", align 1
@.str.4 = private unnamed_addr constant [38 x i8] c"%s: No provider named '%s' is loaded\0A\00", align 1

; Function Attrs: nounwind uwtable
define internal i32 @opt_provider_param(ptr noundef %0) #0 {
  %2 = alloca ptr, align 8
  %3 = alloca %struct.prov_param_st, align 8
  %4 = alloca ptr, align 8
  %5 = alloca ptr, align 8
  %6 = alloca i32, align 4
  store ptr %0, ptr %2, align 8, !tbaa !9
  call void @llvm.lifetime.start.p0(i64 32, ptr %3) #6
  call void @llvm.lifetime.start.p0(i64 8, ptr %4) #6
  call void @llvm.lifetime.start.p0(i64 8, ptr %5) #6
  call void @llvm.lifetime.start.p0(i64 4, ptr %6) #6
  store i32 0, ptr %6, align 4, !tbaa !18
  %7 = load ptr, ptr %2, align 8, !tbaa !9
  %8 = call noalias ptr @CRYPTO_strdup(ptr noundef %7, ptr noundef @.str.1, i32 noundef 92)
  store ptr %8, ptr %4, align 8, !tbaa !9
  %9 = icmp eq ptr %8, null
  br i1 %9, label %15, label %10

10:                                               ; preds = %1
  %11 = load ptr, ptr %4, align 8, !tbaa !9
  %12 = call ptr @strchr(ptr noundef %11, i32 noundef 61) #7
  %13 = getelementptr inbounds nuw %struct.prov_param_st, ptr %3, i32 0, i32 2
  store ptr %12, ptr %13, align 8, !tbaa !21
  %14 = icmp eq ptr %12, null
  br i1 %14, label %15, label %19

15:                                               ; preds = %10, %1
  %16 = call ptr @opt_getprog()
  %17 = load ptr, ptr %2, align 8, !tbaa !9
  %18 = call i32 (ptr, ...) @opt_printf_stderr(ptr noundef @.str.2, ptr noundef %16, ptr noundef %17)
  br label %119

19:                                               ; preds = %10
  %20 = getelementptr inbounds nuw %struct.prov_param_st, ptr %3, i32 0, i32 2
  %21 = load ptr, ptr %20, align 8, !tbaa !21
  %22 = getelementptr inbounds nuw i8, ptr %21, i32 1
  store ptr %22, ptr %20, align 8, !tbaa !21
  store ptr %21, ptr %5, align 8, !tbaa !9
  store i8 0, ptr %21, align 1, !tbaa !20
  br label %23

23:                                               ; preds = %42, %19
  %24 = load ptr, ptr %5, align 8, !tbaa !9
  %25 = load ptr, ptr %4, align 8, !tbaa !9
  %26 = icmp ugt ptr %24, %25
  br i1 %26, label %27, label %40

27:                                               ; preds = %23
  %28 = call ptr @__ctype_b_loc() #8
  %29 = load ptr, ptr %28, align 8, !tbaa !23
  %30 = load ptr, ptr %5, align 8, !tbaa !9
  %31 = getelementptr inbounds i8, ptr %30, i32 -1
  store ptr %31, ptr %5, align 8, !tbaa !9
  %32 = load i8, ptr %31, align 1, !tbaa !20
  %33 = zext i8 %32 to i32
  %34 = sext i32 %33 to i64
  %35 = getelementptr inbounds i16, ptr %29, i64 %34
  %36 = load i16, ptr %35, align 2, !tbaa !25
  %37 = zext i16 %36 to i32
  %38 = and i32 %37, 8192
  %39 = icmp ne i32 %38, 0
  br label %40

40:                                               ; preds = %27, %23
  %41 = phi i1 [ false, %23 ], [ %39, %27 ]
  br i1 %41, label %42, label %44

42:                                               ; preds = %40
  %43 = load ptr, ptr %5, align 8, !tbaa !9
  store i8 0, ptr %43, align 1, !tbaa !20
  br label %23, !llvm.loop !27

44:                                               ; preds = %40
  br label %45

45:                                               ; preds = %58, %44
  %46 = call ptr @__ctype_b_loc() #8
  %47 = load ptr, ptr %46, align 8, !tbaa !23
  %48 = getelementptr inbounds nuw %struct.prov_param_st, ptr %3, i32 0, i32 2
  %49 = load ptr, ptr %48, align 8, !tbaa !21
  %50 = load i8, ptr %49, align 1, !tbaa !20
  %51 = zext i8 %50 to i32
  %52 = sext i32 %51 to i64
  %53 = getelementptr inbounds i16, ptr %47, i64 %52
  %54 = load i16, ptr %53, align 2, !tbaa !25
  %55 = zext i16 %54 to i32
  %56 = and i32 %55, 8192
  %57 = icmp ne i32 %56, 0
  br i1 %57, label %58, label %62

58:                                               ; preds = %45
  %59 = getelementptr inbounds nuw %struct.prov_param_st, ptr %3, i32 0, i32 2
  %60 = load ptr, ptr %59, align 8, !tbaa !21
  %61 = getelementptr inbounds nuw i8, ptr %60, i32 1
  store ptr %61, ptr %59, align 8, !tbaa !21
  br label %45, !llvm.loop !29

62:                                               ; preds = %45
  %63 = load ptr, ptr %4, align 8, !tbaa !9
  %64 = call ptr @strchr(ptr noundef %63, i32 noundef 58) #7
  %65 = getelementptr inbounds nuw %struct.prov_param_st, ptr %3, i32 0, i32 1
  store ptr %64, ptr %65, align 8, !tbaa !30
  %66 = icmp ne ptr %64, null
  br i1 %66, label %67, label %81

67:                                               ; preds = %62
  %68 = getelementptr inbounds nuw %struct.prov_param_st, ptr %3, i32 0, i32 1
  %69 = load ptr, ptr %68, align 8, !tbaa !30
  %70 = getelementptr inbounds nuw i8, ptr %69, i32 1
  store ptr %70, ptr %68, align 8, !tbaa !30
  store i8 0, ptr %69, align 1, !tbaa !20
  %71 = load ptr, ptr %4, align 8, !tbaa !9
  %72 = load i8, ptr %71, align 1, !tbaa !20
  %73 = sext i8 %72 to i32
  %74 = icmp ne i32 %73, 0
  br i1 %74, label %75, label %77

75:                                               ; preds = %67
  %76 = load ptr, ptr %4, align 8, !tbaa !9
  br label %78

77:                                               ; preds = %67
  br label %78

78:                                               ; preds = %77, %75
  %79 = phi ptr [ %76, %75 ], [ null, %77 ]
  %80 = getelementptr inbounds nuw %struct.prov_param_st, ptr %3, i32 0, i32 0
  store ptr %79, ptr %80, align 8, !tbaa !31
  br label %85

81:                                               ; preds = %62
  %82 = getelementptr inbounds nuw %struct.prov_param_st, ptr %3, i32 0, i32 0
  store ptr null, ptr %82, align 8, !tbaa !31
  %83 = load ptr, ptr %4, align 8, !tbaa !9
  %84 = getelementptr inbounds nuw %struct.prov_param_st, ptr %3, i32 0, i32 1
  store ptr %83, ptr %84, align 8, !tbaa !30
  br label %85

85:                                               ; preds = %81, %78
  %86 = getelementptr inbounds nuw %struct.prov_param_st, ptr %3, i32 0, i32 1
  %87 = load ptr, ptr %86, align 8, !tbaa !30
  %88 = load i8, ptr %87, align 1, !tbaa !20
  %89 = sext i8 %88 to i32
  %90 = icmp eq i32 %89, 0
  br i1 %90, label %91, label %95

91:                                               ; preds = %85
  %92 = call ptr @opt_getprog()
  %93 = load ptr, ptr %2, align 8, !tbaa !9
  %94 = call i32 (ptr, ...) @opt_printf_stderr(ptr noundef @.str.2, ptr noundef %92, ptr noundef %93)
  br label %119

95:                                               ; preds = %85
  %96 = getelementptr inbounds nuw %struct.prov_param_st, ptr %3, i32 0, i32 3
  store i32 0, ptr %96, align 8, !tbaa !32
  %97 = call ptr @app_get0_libctx()
  %98 = call i32 @OSSL_PROVIDER_do_all(ptr noundef %97, ptr noundef @set_prov_param, ptr noundef %3)
  store i32 %98, ptr %6, align 4, !tbaa !18
  %99 = load i32, ptr %6, align 4, !tbaa !18
  %100 = icmp eq i32 %99, 0
  br i1 %100, label %101, label %108

101:                                              ; preds = %95
  %102 = call ptr @opt_getprog()
  %103 = getelementptr inbounds nuw %struct.prov_param_st, ptr %3, i32 0, i32 0
  %104 = load ptr, ptr %103, align 8, !tbaa !31
  %105 = getelementptr inbounds nuw %struct.prov_param_st, ptr %3, i32 0, i32 1
  %106 = load ptr, ptr %105, align 8, !tbaa !30
  %107 = call i32 (ptr, ...) @opt_printf_stderr(ptr noundef @.str.3, ptr noundef %102, ptr noundef %104, ptr noundef %106)
  br label %118

108:                                              ; preds = %95
  %109 = getelementptr inbounds nuw %struct.prov_param_st, ptr %3, i32 0, i32 3
  %110 = load i32, ptr %109, align 8, !tbaa !32
  %111 = icmp eq i32 %110, 0
  br i1 %111, label %112, label %117

112:                                              ; preds = %108
  %113 = call ptr @opt_getprog()
  %114 = getelementptr inbounds nuw %struct.prov_param_st, ptr %3, i32 0, i32 0
  %115 = load ptr, ptr %114, align 8, !tbaa !31
  %116 = call i32 (ptr, ...) @opt_printf_stderr(ptr noundef @.str.4, ptr noundef %113, ptr noundef %115)
  store i32 0, ptr %6, align 4, !tbaa !18
  br label %117

117:                                              ; preds = %112, %108
  br label %118

118:                                              ; preds = %117, %101
  br label %119

119:                                              ; preds = %118, %91, %15
  %120 = load ptr, ptr %4, align 8, !tbaa !9
  call void @CRYPTO_free(ptr noundef %120, ptr noundef @.str.1, i32 noundef 137)
  %121 = load i32, ptr %6, align 4, !tbaa !18
  call void @llvm.lifetime.end.p0(i64 4, ptr %6) #6
  call void @llvm.lifetime.end.p0(i64 8, ptr %5) #6
  call void @llvm.lifetime.end.p0(i64 8, ptr %4) #6
  call void @llvm.lifetime.end.p0(i64 32, ptr %3) #6
  ret i32 %121
}

; Function Attrs: nounwind uwtable
define internal i32 @opt_provider_path(ptr noundef %0) #0 {
  %2 = alloca ptr, align 8
  store ptr %0, ptr %2, align 8, !tbaa !9
  %3 = load ptr, ptr %2, align 8, !tbaa !9
  %4 = icmp ne ptr %3, null
  br i1 %4, label %5, label %11

5:                                                ; preds = %1
  %6 = load ptr, ptr %2, align 8, !tbaa !9
  %7 = load i8, ptr %6, align 1, !tbaa !20
  %8 = sext i8 %7 to i32
  %9 = icmp eq i32 %8, 0
  br i1 %9, label %10, label %11

10:                                               ; preds = %5
  store ptr null, ptr %2, align 8, !tbaa !9
  br label %11

11:                                               ; preds = %10, %5, %1
  %12 = call ptr @app_get0_libctx()
  %13 = load ptr, ptr %2, align 8, !tbaa !9
  %14 = call i32 @OSSL_PROVIDER_set_default_search_path(ptr noundef %12, ptr noundef %13)
  ret i32 %14
}

; Function Attrs: nounwind uwtable
define dso_local i32 @opt_provider(i32 noundef %0) #0 {
  %2 = alloca i32, align 4
  %3 = alloca i32, align 4
  %4 = alloca i32, align 4
  %5 = alloca i32, align 4
  store i32 %0, ptr %3, align 4, !tbaa !18
  call void @llvm.lifetime.start.p0(i64 4, ptr %4) #6
  %6 = load i32, ptr @provider_option_given, align 4, !tbaa !18
  store i32 %6, ptr %4, align 4, !tbaa !18
  store i32 1, ptr @provider_option_given, align 4, !tbaa !18
  %7 = load i32, ptr %3, align 4, !tbaa !18
  switch i32 %7, label %22 [
    i32 1600, label %8
    i32 1605, label %8
    i32 1601, label %9
    i32 1602, label %13
    i32 1604, label %16
    i32 1603, label %19
  ]

8:                                                ; preds = %1, %1
  store i32 1, ptr %2, align 4
  store i32 1, ptr %5, align 4
  br label %24

9:                                                ; preds = %1
  %10 = call ptr @app_get0_libctx()
  %11 = call ptr @opt_arg()
  %12 = call i32 @app_provider_load(ptr noundef %10, ptr noundef %11)
  store i32 %12, ptr %2, align 4
  store i32 1, ptr %5, align 4
  br label %24

13:                                               ; preds = %1
  %14 = call ptr @opt_arg()
  %15 = call i32 @opt_provider_path(ptr noundef %14)
  store i32 %15, ptr %2, align 4
  store i32 1, ptr %5, align 4
  br label %24

16:                                               ; preds = %1
  %17 = call ptr @opt_arg()
  %18 = call i32 @opt_provider_param(ptr noundef %17)
  store i32 %18, ptr %2, align 4
  store i32 1, ptr %5, align 4
  br label %24

19:                                               ; preds = %1
  %20 = call ptr @opt_arg()
  %21 = call i32 @app_set_propq(ptr noundef %20)
  store i32 %21, ptr %2, align 4
  store i32 1, ptr %5, align 4
  br label %24

22:                                               ; preds = %1
  %23 = load i32, ptr %4, align 4, !tbaa !18
  store i32 %23, ptr @provider_option_given, align 4, !tbaa !18
  store i32 0, ptr %2, align 4
  store i32 1, ptr %5, align 4
  br label %24

24:                                               ; preds = %22, %19, %16, %13, %9, %8
  call void @llvm.lifetime.end.p0(i64 4, ptr %4) #6
  %25 = load i32, ptr %2, align 4
  ret i32 %25
}