; Function Attrs: nounwind uwtable
define dso_local i32 @opt_provider(i32 noundef %0) local_unnamed_addr #0 {
  %2 = alloca %struct.prov_param_st, align 8
  %.b = load i1, ptr @provider_option_given, align 4
  store i1 true, ptr @provider_option_given, align 4
  switch i32 %0, label %85 [
    i32 1600, label %86
    i32 1605, label %86
    i32 1601, label %3
    i32 1602, label %7
    i32 1604, label %14
    i32 1603, label %82
  ]

3:                                                ; preds = %1
  %4 = tail call ptr @app_get0_libctx() #6
  %5 = tail call ptr @opt_arg() #6
  %6 = tail call i32 @app_provider_load(ptr noundef %4, ptr noundef %5)
  br label %86

7:                                                ; preds = %1
  %8 = tail call ptr @opt_arg() #6
  %.not.i = icmp eq ptr %8, null
  br i1 %.not.i, label %opt_provider_path.exit, label %9

9:                                                ; preds = %7
  %10 = load i8, ptr %8, align 1, !tbaa !11
  %11 = icmp eq i8 %10, 0
  %spec.store.select.i = select i1 %11, ptr null, ptr %8
  br label %opt_provider_path.exit

opt_provider_path.exit:                           ; preds = %7, %9
  %.0.i = phi ptr [ %spec.store.select.i, %9 ], [ null, %7 ]
  %12 = tail call ptr @app_get0_libctx() #6
  %13 = tail call i32 @OSSL_PROVIDER_set_default_search_path(ptr noundef %12, ptr noundef %.0.i) #6
  br label %86

14:                                               ; preds = %1
  %15 = tail call ptr @opt_arg() #6
  call void @llvm.lifetime.start.p0(i64 32, ptr nonnull %2) #6
  %16 = tail call noalias ptr @CRYPTO_strdup(ptr noundef %15, ptr noundef nonnull @.str.1, i32 noundef 92) #6
  %17 = icmp eq ptr %16, null
  br i1 %17, label %22, label %18

18:                                               ; preds = %14
  %19 = tail call ptr @strchr(ptr noundef nonnull dereferenceable(1) %16, i32 noundef 61) #7
  %20 = getelementptr inbounds nuw i8, ptr %2, i64 16
  store ptr %19, ptr %20, align 8, !tbaa !12
  %21 = icmp eq ptr %19, null
  br i1 %21, label %22, label %25

22:                                               ; preds = %18, %14
  %23 = tail call ptr @opt_getprog() #6
  %24 = tail call i32 (ptr, ...) @opt_printf_stderr(ptr noundef nonnull @.str.2, ptr noundef %23, ptr noundef %15) #6
  br label %opt_provider_param.exit

25:                                               ; preds = %18
  %26 = getelementptr inbounds nuw i8, ptr %19, i64 1
  store ptr %26, ptr %20, align 8, !tbaa !12
  store i8 0, ptr %19, align 1, !tbaa !11
  %27 = icmp ugt ptr %19, %16
  %28 = tail call ptr @__ctype_b_loc() #8
  br i1 %27, label %.lr.ph.i, label %.critedge.i

.lr.ph.i:                                         ; preds = %25, %36
  %.01422.i = phi ptr [ %30, %36 ], [ %19, %25 ]
  %29 = load ptr, ptr %28, align 8, !tbaa !16
  %30 = getelementptr inbounds i8, ptr %.01422.i, i64 -1
  %31 = load i8, ptr %30, align 1, !tbaa !11
  %32 = zext i8 %31 to i64
  %33 = getelementptr inbounds nuw i16, ptr %29, i64 %32
  %34 = load i16, ptr %33, align 2, !tbaa !18
  %35 = and i16 %34, 8192
  %.not.i5 = icmp eq i16 %35, 0
  br i1 %.not.i5, label %.critedge.i, label %36

36:                                               ; preds = %.lr.ph.i
  store i8 0, ptr %30, align 1, !tbaa !11
  %37 = icmp ugt ptr %30, %16
  br i1 %37, label %.lr.ph.i, label %.critedge.i, !llvm.loop !20

.critedge.i:                                      ; preds = %36, %.lr.ph.i, %25
  %38 = load ptr, ptr %28, align 8, !tbaa !16
  %39 = load i8, ptr %26, align 1, !tbaa !11
  %40 = zext i8 %39 to i64
  %41 = getelementptr inbounds nuw i16, ptr %38, i64 %40
  %42 = load i16, ptr %41, align 2, !tbaa !18
  %43 = and i16 %42, 8192
  %.not1924.i = icmp eq i16 %43, 0
  br i1 %.not1924.i, label %._crit_edge.i, label %.lr.ph25.i

.lr.ph25.i:                                       ; preds = %.critedge.i, %.lr.ph25.i
  %44 = phi ptr [ %45, %.lr.ph25.i ], [ %26, %.critedge.i ]
  %45 = getelementptr inbounds nuw i8, ptr %44, i64 1
  store ptr %45, ptr %20, align 8, !tbaa !12
  %46 = load i8, ptr %45, align 1, !tbaa !11
  %47 = zext i8 %46 to i64
  %48 = getelementptr inbounds nuw i16, ptr %38, i64 %47
  %49 = load i16, ptr %48, align 2, !tbaa !18
  %50 = and i16 %49, 8192
  %.not19.i = icmp eq i16 %50, 0
  br i1 %.not19.i, label %._crit_edge.i, label %.lr.ph25.i, !llvm.loop !22

._crit_edge.i:                                    ; preds = %.lr.ph25.i, %.critedge.i
  %51 = tail call ptr @strchr(ptr noundef nonnull dereferenceable(1) %16, i32 noundef 58) #7
  %52 = getelementptr inbounds nuw i8, ptr %2, i64 8
  %.not20.i = icmp eq ptr %51, null
  br i1 %.not20.i, label %57, label %53

53:                                               ; preds = %._crit_edge.i
  %54 = getelementptr inbounds nuw i8, ptr %51, i64 1
  store ptr %54, ptr %52, align 8, !tbaa !23
  store i8 0, ptr %51, align 1, !tbaa !11
  %55 = load i8, ptr %16, align 1, !tbaa !11
  %.not21.i = icmp eq i8 %55, 0
  %56 = select i1 %.not21.i, ptr null, ptr %16
  br label %58

57:                                               ; preds = %._crit_edge.i
  store ptr %16, ptr %52, align 8, !tbaa !23
  br label %58

58:                                               ; preds = %57, %53
  %59 = phi ptr [ %16, %57 ], [ %54, %53 ]
  %.sink.i = phi ptr [ null, %57 ], [ %56, %53 ]
  store ptr %.sink.i, ptr %2, align 8, !tbaa !24
  %60 = load i8, ptr %59, align 1, !tbaa !11
  %61 = icmp eq i8 %60, 0
  br i1 %61, label %62, label %65

62:                                               ; preds = %58
  %63 = tail call ptr @opt_getprog() #6
  %64 = tail call i32 (ptr, ...) @opt_printf_stderr(ptr noundef nonnull @.str.2, ptr noundef %63, ptr noundef %15) #6
  br label %opt_provider_param.exit

65:                                               ; preds = %58
  %66 = getelementptr inbounds nuw i8, ptr %2, i64 24
  store i32 0, ptr %66, align 8, !tbaa !25
  %67 = tail call ptr @app_get0_libctx() #6
  %68 = call i32 @OSSL_PROVIDER_do_all(ptr noundef %67, ptr noundef nonnull @set_prov_param, ptr noundef nonnull %2) #6
  %69 = icmp eq i32 %68, 0
  br i1 %69, label %70, label %75

70:                                               ; preds = %65
  %71 = call ptr @opt_getprog() #6
  %72 = load ptr, ptr %2, align 8, !tbaa !24
  %73 = load ptr, ptr %52, align 8, !tbaa !23
  %74 = call i32 (ptr, ...) @opt_printf_stderr(ptr noundef nonnull @.str.3, ptr noundef %71, ptr noundef %72, ptr noundef %73) #6
  br label %opt_provider_param.exit

75:                                               ; preds = %65
  %76 = load i32, ptr %66, align 8, !tbaa !25
  %77 = icmp eq i32 %76, 0
  br i1 %77, label %78, label %opt_provider_param.exit

78:                                               ; preds = %75
  %79 = call ptr @opt_getprog() #6
  %80 = load ptr, ptr %2, align 8, !tbaa !24
  %81 = call i32 (ptr, ...) @opt_printf_stderr(ptr noundef nonnull @.str.4, ptr noundef %79, ptr noundef %80) #6
  br label %opt_provider_param.exit

opt_provider_param.exit:                          ; preds = %22, %62, %70, %75, %78
  %.0.i4 = phi i32 [ 0, %22 ], [ 0, %62 ], [ 0, %70 ], [ 0, %78 ], [ %68, %75 ]
  call void @CRYPTO_free(ptr noundef %16, ptr noundef nonnull @.str.1, i32 noundef 137) #6
  call void @llvm.lifetime.end.p0(i64 32, ptr nonnull %2) #6
  br label %86

82:                                               ; preds = %1
  %83 = tail call ptr @opt_arg() #6
  %84 = tail call i32 @app_set_propq(ptr noundef %83) #6
  br label %86

85:                                               ; preds = %1
  store i1 %.b, ptr @provider_option_given, align 4
  br label %86

86:                                               ; preds = %1, %1, %85, %82, %opt_provider_param.exit, %opt_provider_path.exit, %3
  %.0 = phi i32 [ 0, %85 ], [ %84, %82 ], [ %.0.i4, %opt_provider_param.exit ], [ %13, %opt_provider_path.exit ], [ %6, %3 ], [ 1, %1 ], [ 1, %1 ]
  ret i32 %.0
}